; Function Attrs: mustprogress uwtable
define void @_ZN2cv3hal9cvt32f16fEPKfPNS_6hfloatEi(ptr nocapture noundef readonly %0, ptr nocapture noundef writeonly %1, i32 noundef %2) local_unnamed_addr #0 personality ptr @__gxx_personality_v0 {
  %4 = alloca %"class.cv::utils::trace::details::Region", align 8
  %5 = alloca %"class.cv::utils::trace::details::Region", align 8
  call void @_ZN2cv5utils5trace7details6RegionC1ERKNS3_21LocationStaticStorageE(ptr noundef nonnull align 8 dereferenceable(12) %5, ptr noundef nonnull align 8 dereferenceable(32) @_ZZN2cv3hal9cvt32f16fEPKfPNS_6hfloatEiE24__cv_trace_location_fn22)
  call void @llvm.lifetime.start.p0(i64 16, ptr nonnull %4)
  invoke void @_ZN2cv5utils5trace7details6RegionC1ERKNS3_21LocationStaticStorageE(ptr noundef nonnull align 8 dereferenceable(12) %4, ptr noundef nonnull align 8 dereferenceable(32) @_ZZN2cv3hal12cpu_baseline9cvt32f16fEPKfPNS_6hfloatEiE24__cv_trace_location_fn61)
          to label %.noexc unwind label %48

.noexc:                                           ; preds = %3
  %6 = icmp sgt i32 %2, 0
  br i1 %6, label %.lr.ph.preheader.i, label %._crit_edge.i

.lr.ph.preheader.i:                               ; preds = %.noexc
  %wide.trip.count.i = zext nneg i32 %2 to i64
  br label %.lr.ph.i

.lr.ph.i:                                         ; preds = %_ZN2cv6hfloatC2Ef.exit.i, %.lr.ph.preheader.i
  %indvars.iv.i = phi i64 [ 0, %.lr.ph.preheader.i ], [ %indvars.iv.next.i, %_ZN2cv6hfloatC2Ef.exit.i ]
  %7 = getelementptr inbounds float, ptr %0, i64 %indvars.iv.i
  %8 = load float, ptr %7, align 4
  %9 = call float @llvm.fabs.f32(float %8)
  %10 = bitcast float %9 to i32
  %11 = icmp ugt i32 %10, 1199570943
  br i1 %11, label %12, label %15

12:                                               ; preds = %.lr.ph.i
  %13 = icmp ugt i32 %10, 2139095040
  %14 = select i1 %13, i16 32256, i16 31744
  br label %_ZN2cv6hfloatC2Ef.exit.i

15:                                               ; preds = %.lr.ph.i
  %16 = icmp ult i32 %10, 947912704
  br i1 %16, label %17, label %21

17:                                               ; preds = %15
  %18 = fadd float %9, 5.000000e-01
  %19 = bitcast float %18 to i32
  %20 = trunc i32 %19 to i16
  br label %_ZN2cv6hfloatC2Ef.exit.i

21:                                               ; preds = %15
  %22 = add nuw nsw i32 %10, 134221823
  %23 = lshr i32 %10, 13
  %24 = and i32 %23, 1
  %25 = add nuw nsw i32 %22, %24
  %26 = lshr i32 %25, 13
  %27 = trunc i32 %26 to i16
  br label %_ZN2cv6hfloatC2Ef.exit.i

_ZN2cv6hfloatC2Ef.exit.i:                         ; preds = %21, %17, %12
  %28 = phi i16 [ %20, %17 ], [ %27, %21 ], [ %14, %12 ]
  %29 = bitcast float %8 to i32
  %30 = lshr i32 %29, 16
  %31 = trunc nuw i32 %30 to i16
  %32 = and i16 %31, -32768
  %33 = or i16 %28, %32
  %34 = getelementptr inbounds %"class.cv::hfloat", ptr %1, i64 %indvars.iv.i
  store i16 %33, ptr %34, align 2
  %indvars.iv.next.i = add nuw nsw i64 %indvars.iv.i, 1
  %exitcond.not.i = icmp eq i64 %indvars.iv.next.i, %wide.trip.count.i
  br i1 %exitcond.not.i, label %._crit_edge.i, label %.lr.ph.i, !llvm.loop !6

._crit_edge.i:                                    ; preds = %_ZN2cv6hfloatC2Ef.exit.i, %.noexc
  %35 = getelementptr inbounds i8, ptr %4, i64 8
  %36 = load i32, ptr %35, align 8
  %.not.i.i = icmp eq i32 %36, 0
  br i1 %.not.i.i, label %41, label %37

37:                                               ; preds = %._crit_edge.i
  invoke void @_ZN2cv5utils5trace7details6Region7destroyEv(ptr noundef nonnull align 8 dereferenceable(12) %4)
          to label %41 unwind label %38

38:                                               ; preds = %37
  %39 = landingpad { ptr, i32 }
          catch ptr null
  %40 = extractvalue { ptr, i32 } %39, 0
  call void @__clang_call_terminate(ptr %40) #14
  unreachable

41:                                               ; preds = %37, %._crit_edge.i
  call void @llvm.lifetime.end.p0(i64 16, ptr nonnull %4)
  %42 = getelementptr inbounds i8, ptr %5, i64 8
  %43 = load i32, ptr %42, align 8
  %.not.i = icmp eq i32 %43, 0
  br i1 %.not.i, label %_ZN2cv5utils5trace7details6RegionD2Ev.exit, label %44

44:                                               ; preds = %41
  invoke void @_ZN2cv5utils5trace7details6Region7destroyEv(ptr noundef nonnull align 8 dereferenceable(12) %5)
          to label %_ZN2cv5utils5trace7details6RegionD2Ev.exit unwind label %45

45:                                               ; preds = %44
  %46 = landingpad { ptr, i32 }
          catch ptr null
  %47 = extractvalue { ptr, i32 } %46, 0
  call void @__clang_call_terminate(ptr %47) #14
  unreachable

_ZN2cv5utils5trace7details6RegionD2Ev.exit:       ; preds = %41, %44
  ret void

48:                                               ; preds = %3
  %49 = landingpad { ptr, i32 }
          cleanup
  call void @_ZN2cv5utils5trace7details6RegionD2Ev(ptr noundef nonnull align 8 dereferenceable(12) %5) #15
  resume { ptr, i32 } %49
}